; Function Attrs: nounwind uwtable
define internal ptr @tuple___getnewargs__(ptr noundef %0, ptr readnone captures(none) %1) #0 {
  %3 = getelementptr i8, ptr %0, i64 16
  %.val.i = load i64, ptr %3, align 8, !tbaa !107
  %spec.select.i.i = tail call i64 @llvm.smax.i64(i64 %.val.i, i64 0)
  %4 = icmp sgt i64 %.val.i, -1
  br i1 %4, label %5, label %12

5:                                                ; preds = %2
  %6 = getelementptr i8, ptr %0, i64 8
  %.val20.i.i = load ptr, ptr %6, align 8, !tbaa !99
  %.not.i.i = icmp eq ptr %.val20.i.i, @PyTuple_Type
  br i1 %.not.i.i, label %7, label %12

7:                                                ; preds = %5
  %8 = load i32, ptr %0, align 8, !tbaa !108
  %9 = icmp slt i32 %8, 0
  br i1 %9, label %tuple___getnewargs___impl.exit, label %10

10:                                               ; preds = %7
  %11 = add nuw i32 %8, 1
  store i32 %11, ptr %0, align 8, !tbaa !108
  br label %tuple___getnewargs___impl.exit

12:                                               ; preds = %5, %2
  %13 = getelementptr inbounds nuw i8, ptr %0, i64 24
  %14 = tail call ptr @_PyTuple_FromArray(ptr noundef nonnull %13, i64 noundef %spec.select.i.i)
  br label %tuple___getnewargs___impl.exit

tuple___getnewargs___impl.exit:                   ; preds = %7, %10, %12
  %.016.i.i = phi ptr [ %14, %12 ], [ %0, %7 ], [ %0, %10 ]
  %15 = tail call ptr (ptr, ...) @Py_BuildValue(ptr noundef nonnull @.str.17, ptr noundef %.016.i.i) #9
  ret ptr %15
}